target datalayout = "e-m:e-p270:32:32-p271:32:32-p272:64:64-i64:64-i128:128-f80:128-n8:16:32:64-S128"
target triple = "x86_64-pc-linux-gnu"

%"struct.absl::str_format_internal::(anonymous namespace)::Buffer" = type { [85 x i8], ptr, ptr }

; Function Attrs: mustprogress nounwind uwtable
define internal void @_ZN4absl19str_format_internal12_GLOBAL__N_16Buffer9push_backEc(ptr noundef nonnull align 8 dereferenceable(104) %0, i8 noundef signext %1) #2 align 2 {
  %3 = alloca ptr, align 8
  %4 = alloca i8, align 1
  store ptr %0, ptr %3, align 8, !tbaa !59
  store i8 %1, ptr %4, align 1, !tbaa !13
  %5 = load ptr, ptr %3, align 8
  %6 = load i8, ptr %4, align 1, !tbaa !13
  %7 = getelementptr inbounds nuw %"struct.absl::str_format_internal::(anonymous namespace)::Buffer", ptr %5, i32 0, i32 2
  %8 = load ptr, ptr %7, align 8, !tbaa !39
  %9 = getelementptr inbounds nuw i8, ptr %8, i32 1
  store ptr %9, ptr %7, align 8, !tbaa !39
  store i8 %6, ptr %8, align 1, !tbaa !13
  ret void
}

; Function Attrs: mustprogress nounwind uwtable
define internal void @_ZN4absl19str_format_internal12_GLOBAL__N_113PrintExponentEicPNS1_6BufferE(i32 noundef %0, i8 noundef signext %1, ptr noundef %2) #2 {
  %4 = alloca i32, align 4
  %5 = alloca i8, align 1
  %6 = alloca ptr, align 8
  store i32 %0, ptr %4, align 4, !tbaa !16
  store i8 %1, ptr %5, align 1, !tbaa !13
  store ptr %2, ptr %6, align 8, !tbaa !59
  %7 = load ptr, ptr %6, align 8, !tbaa !59
  %8 = load i8, ptr %5, align 1, !tbaa !13
  call void @_ZN4absl19str_format_internal12_GLOBAL__N_16Buffer9push_backEc(ptr noundef nonnull align 8 dereferenceable(104) %7, i8 noundef signext %8)
  %9 = load i32, ptr %4, align 4, !tbaa !16
  %10 = icmp slt i32 %9, 0
  br i1 %10, label %11, label %15

11:                                               ; preds = %3
  %12 = load ptr, ptr %6, align 8, !tbaa !59
  call void @_ZN4absl19str_format_internal12_GLOBAL__N_16Buffer9push_backEc(ptr noundef nonnull align 8 dereferenceable(104) %12, i8 noundef signext 45)
  %13 = load i32, ptr %4, align 4, !tbaa !16
  %14 = sub nsw i32 0, %13
  store i32 %14, ptr %4, align 4, !tbaa !16
  br label %17

15:                                               ; preds = %3
  %16 = load ptr, ptr %6, align 8, !tbaa !59
  call void @_ZN4absl19str_format_internal12_GLOBAL__N_16Buffer9push_backEc(ptr noundef nonnull align 8 dereferenceable(104) %16, i8 noundef signext 43)
  br label %17

17:                                               ; preds = %15, %11
  %18 = load i32, ptr %4, align 4, !tbaa !16
  %19 = icmp sgt i32 %18, 99
  br i1 %19, label %20, label %37

20:                                               ; preds = %17
  %21 = load ptr, ptr %6, align 8, !tbaa !59
  %22 = load i32, ptr %4, align 4, !tbaa !16
  %23 = sdiv i32 %22, 100
  %24 = add nsw i32 %23, 48
  %25 = trunc i32 %24 to i8
  call void @_ZN4absl19str_format_internal12_GLOBAL__N_16Buffer9push_backEc(ptr noundef nonnull align 8 dereferenceable(104) %21, i8 noundef signext %25)
  %26 = load ptr, ptr %6, align 8, !tbaa !59
  %27 = load i32, ptr %4, align 4, !tbaa !16
  %28 = sdiv i32 %27, 10
  %29 = srem i32 %28, 10
  %30 = add nsw i32 %29, 48
  %31 = trunc i32 %30 to i8
  call void @_ZN4absl19str_format_internal12_GLOBAL__N_16Buffer9push_backEc(ptr noundef nonnull align 8 dereferenceable(104) %26, i8 noundef signext %31)
  %32 = load ptr, ptr %6, align 8, !tbaa !59
  %33 = load i32, ptr %4, align 4, !tbaa !16
  %34 = srem i32 %33, 10
  %35 = add nsw i32 %34, 48
  %36 = trunc i32 %35 to i8
  call void @_ZN4absl19str_format_internal12_GLOBAL__N_16Buffer9push_backEc(ptr noundef nonnull align 8 dereferenceable(104) %32, i8 noundef signext %36)
  br label %48

37:                                               ; preds = %17
  %38 = load ptr, ptr %6, align 8, !tbaa !59
  %39 = load i32, ptr %4, align 4, !tbaa !16
  %40 = sdiv i32 %39, 10
  %41 = add nsw i32 %40, 48
  %42 = trunc i32 %41 to i8
  call void @_ZN4absl19str_format_internal12_GLOBAL__N_16Buffer9push_backEc(ptr noundef nonnull align 8 dereferenceable(104) %38, i8 noundef signext %42)
  %43 = load ptr, ptr %6, align 8, !tbaa !59
  %44 = load i32, ptr %4, align 4, !tbaa !16
  %45 = srem i32 %44, 10
  %46 = add nsw i32 %45, 48
  %47 = trunc i32 %46 to i8
  call void @_ZN4absl19str_format_internal12_GLOBAL__N_16Buffer9push_backEc(ptr noundef nonnull align 8 dereferenceable(104) %43, i8 noundef signext %47)
  br label %48

48:                                               ; preds = %37, %20
  ret void
}