; Function Attrs: mustprogress nofree norecurse nosync nounwind willreturn memory(write, argmem: readwrite, inaccessiblemem: none) uwtable
define internal fastcc void @_ZN4absl19str_format_internal12_GLOBAL__N_113PrintExponentEicPNS1_6BufferE(i32 noundef %0, i8 noundef signext range(i8 69, 102) %1, ptr noundef nonnull captures(none) %2) unnamed_addr #4 {
  %4 = getelementptr inbounds nuw i8, ptr %2, i64 96
  %5 = load ptr, ptr %4, align 8, !tbaa !37
  %6 = getelementptr inbounds nuw i8, ptr %5, i64 1
  store ptr %6, ptr %4, align 8, !tbaa !37
  store i8 %1, ptr %5, align 1, !tbaa !12
  %7 = icmp slt i32 %0, 0
  %8 = load ptr, ptr %4, align 8, !tbaa !37
  %9 = getelementptr inbounds nuw i8, ptr %8, i64 1
  store ptr %9, ptr %4, align 8, !tbaa !37
  br i1 %7, label %10, label %12

10:                                               ; preds = %3
  store i8 45, ptr %8, align 1, !tbaa !12
  %11 = sub nsw i32 0, %0
  br label %13

12:                                               ; preds = %3
  store i8 43, ptr %8, align 1, !tbaa !12
  br label %13

13:                                               ; preds = %12, %10
  %.0 = phi i32 [ %11, %10 ], [ %0, %12 ]
  %14 = icmp samesign ugt i32 %.0, 99
  %15 = load ptr, ptr %4, align 8, !tbaa !37
  %16 = getelementptr inbounds nuw i8, ptr %15, i64 1
  store ptr %16, ptr %4, align 8, !tbaa !37
  br i1 %14, label %17, label %29

17:                                               ; preds = %13
  %18 = udiv i32 %.0, 100
  %19 = trunc i32 %18 to i8
  %20 = add i8 %19, 48
  store i8 %20, ptr %15, align 1, !tbaa !12
  %21 = udiv i32 %.0, 10
  %22 = urem i32 %21, 10
  %23 = trunc nuw nsw i32 %22 to i8
  %24 = or disjoint i8 %23, 48
  %25 = load ptr, ptr %4, align 8, !tbaa !37
  %26 = getelementptr inbounds nuw i8, ptr %25, i64 1
  store ptr %26, ptr %4, align 8, !tbaa !37
  store i8 %24, ptr %25, align 1, !tbaa !12
  %27 = urem i32 %.0, 10
  %28 = trunc nuw nsw i32 %27 to i8
  br label %33

29:                                               ; preds = %13
  %.lhs.trunc = trunc nuw i32 %.0 to i8
  %30 = udiv i8 %.lhs.trunc, 10
  %31 = or disjoint i8 %30, 48
  store i8 %31, ptr %15, align 1, !tbaa !12
  %32 = urem i8 %.lhs.trunc, 10
  br label %33

33:                                               ; preds = %29, %17
  %.sink22 = phi i8 [ %32, %29 ], [ %28, %17 ]
  %34 = or disjoint i8 %.sink22, 48
  %35 = load ptr, ptr %4, align 8, !tbaa !37
  %36 = getelementptr inbounds nuw i8, ptr %35, i64 1
  store ptr %36, ptr %4, align 8, !tbaa !37
  store i8 %34, ptr %35, align 1, !tbaa !12
  ret void
}